; ModuleID = 'source-C-CXX/55/1961.c'
source_filename = "source-C-CXX/55/1961.c"
target datalayout = "e-m:e-p270:32:32-p271:32:32-p272:64:64-i64:64-f80:128-n8:16:32:64-S128"
target triple = "x86_64-pc-linux-gnu"

@.str = private unnamed_addr constant [3 x i8] c"%d\00", align 1

; Function Attrs: nofree nounwind sspstrong uwtable
define dso_local i32 @main() local_unnamed_addr #0 {
  %1 = alloca i32, align 4
  %2 = alloca [6 x i32], align 16
  %3 = bitcast i32* %1 to i8*
  call void @llvm.lifetime.start.p0i8(i64 4, i8* nonnull %3) #4
  %4 = bitcast [6 x i32]* %2 to i8*
  call void @llvm.lifetime.start.p0i8(i64 24, i8* nonnull %4) #4
  %5 = call i32 (i8*, ...) @__isoc99_scanf(i8* getelementptr inbounds ([3 x i8], [3 x i8]* @.str, i64 0, i64 0), i32* nonnull %1)
  %6 = load i32, i32* %1, align 4, !tbaa !5
  %7 = sitofp i32 %6 to double
  %8 = call double @log(double %7) #4
  %9 = fdiv double %8, 0x40026BB1BBB55516
  %10 = fptosi double %9 to i32
  %11 = add i32 %10, 1
  %12 = icmp slt i32 %10, 0
  br i1 %12, label %44, label %13

13:                                               ; preds = %0
  %14 = add nuw i32 %10, 2
  %15 = zext i32 %14 to i64
  br label %20

16:                                               ; preds = %20
  %17 = icmp sgt i32 %10, -1
  br i1 %17, label %18, label %44

18:                                               ; preds = %16
  %19 = sext i32 %11 to i64
  br label %33

20:                                               ; preds = %13, %20
  %21 = phi i64 [ 1, %13 ], [ %31, %20 ]
  %22 = load i32, i32* %1, align 4, !tbaa !5
  %23 = trunc i64 %21 to i32
  %24 = add i32 %23, -1
  %25 = sitofp i32 %24 to double
  %26 = call double @pow(double 1.000000e+01, double %25) #4
  %27 = fptosi double %26 to i32
  %28 = sdiv i32 %22, %27
  %29 = srem i32 %28, 10
  %30 = getelementptr inbounds [6 x i32], [6 x i32]* %2, i64 0, i64 %21
  store i32 %29, i32* %30, align 4, !tbaa !5
  %31 = add nuw nsw i64 %21, 1
  %32 = icmp eq i64 %31, %15
  br i1 %32, label %16, label %20, !llvm.loop !9

33:                                               ; preds = %18, %33
  %34 = phi i64 [ %19, %18 ], [ %41, %33 ]
  %35 = phi i32 [ %11, %18 ], [ %42, %33 ]
  %36 = sub i32 %14, %35
  %37 = sext i32 %36 to i64
  %38 = getelementptr inbounds [6 x i32], [6 x i32]* %2, i64 0, i64 %37
  %39 = load i32, i32* %38, align 4, !tbaa !5
  %40 = call i32 (i8*, ...) @printf(i8* nonnull dereferenceable(1) getelementptr inbounds ([3 x i8], [3 x i8]* @.str, i64 0, i64 0), i32 %39)
  %41 = add nsw i64 %34, -1
  %42 = add nsw i32 %35, -1
  %43 = icmp sgt i64 %34, 1
  br i1 %43, label %33, label %44, !llvm.loop !11

44:                                               ; preds = %33, %0, %16
  call void @llvm.lifetime.end.p0i8(i64 24, i8* nonnull %4) #4
  call void @llvm.lifetime.end.p0i8(i64 4, i8* nonnull %3) #4
  ret i32 0
}

; Function Attrs: argmemonly mustprogress nofree nosync nounwind willreturn
declare void @llvm.lifetime.start.p0i8(i64 immarg, i8* nocapture) #1

; Function Attrs: nofree nounwind
declare noundef i32 @__isoc99_scanf(i8* nocapture noundef readonly, ...) local_unnamed_addr #2

; Function Attrs: mustprogress nofree nounwind willreturn
declare double @log(double) local_unnamed_addr #3

; Function Attrs: mustprogress nofree nounwind willreturn
declare double @pow(double, double) local_unnamed_addr #3

; Function Attrs: nofree nounwind
declare noundef i32 @printf(i8* nocapture noundef readonly, ...) local_unnamed_addr #2

; Function Attrs: argmemonly mustprogress nofree nosync nounwind willreturn
declare void @llvm.lifetime.end.p0i8(i64 immarg, i8* nocapture) #1


!llvm.module.flags = !{!0, !1, !2, !3}
!llvm.ident = !{!4}

!0 = !{i32 1, !"wchar_size", i32 4}
!1 = !{i32 7, !"PIC Level", i32 2}
!2 = !{i32 7, !"PIE Level", i32 2}
!3 = !{i32 7, !"uwtable", i32 1}
!4 = !{!"clang version 13.0.0"}
!5 = !{!6, !6, i64 0}
!6 = !{!"int", !7, i64 0}
!7 = !{!"omnipotent char", !8, i64 0}
!8 = !{!"Simple C/C++ TBAA"}
!9 = distinct !{!9, !10}
!10 = !{!"llvm.loop.mustprogress"}
!11 = distinct !{!11, !10}
